target datalayout = "e-m:e-p270:32:32-p271:32:32-p272:64:64-i64:64-i128:128-f80:128-n8:16:32:64-S128"
target triple = "x86_64-pc-linux-gnu"

@zdp_parse_cinfo.cinfo = internal constant [7 x ptr] [ptr @hf_zbee_zdp_cinfo_alt_coord, ptr @hf_zbee_zdp_cinfo_ffd, ptr @hf_zbee_zdp_cinfo_power, ptr @hf_zbee_zdp_cinfo_idle_rx, ptr @hf_zbee_zdp_cinfo_security, ptr @hf_zbee_zdp_cinfo_alloc, ptr null], align 16
@hf_zbee_zdp_cinfo = internal global i32 0, align 4
@hf_zbee_zdp_server = internal global i32 0, align 4
@.str.121 = private unnamed_addr constant [16 x i8] c"Node Descriptor\00", align 1
@hf_zbee_zdp_node_type = internal global i32 0, align 4
@.str.122 = private unnamed_addr constant [15 x i8] c" (Coordinator)\00", align 1
@.str.123 = private unnamed_addr constant [10 x i8] c" (Router)\00", align 1
@.str.124 = private unnamed_addr constant [14 x i8] c" (End Device)\00", align 1
@.str.125 = private unnamed_addr constant [12 x i8] c" (Reserved)\00", align 1
@ett_zbee_zdp_cinfo = hidden global i32 0, align 4
@hf_zbee_zdp_node_manufacturer = internal global i32 0, align 4
@hf_zbee_zdp_node_max_buffer = internal global i32 0, align 4
@hf_zbee_zdp_node_max_incoming_transfer = internal global i32 0, align 4
@zdp_parse_node_desc.descriptors = internal constant [3 x ptr] [ptr @hf_zbee_zdp_dcf_eaela, ptr @hf_zbee_zdp_dcf_esdla, ptr null], align 16
@ett_zbee_zdp_server = hidden global i32 0, align 4
@.str.126 = private unnamed_addr constant [10 x i8] c", Rev: %d\00", align 1
@hf_zbee_zdp_node_max_outgoing_transfer = internal global i32 0, align 4
@hf_zbee_zdp_dcf = internal global i32 0, align 4
@ett_zbee_zdp_descriptor_capability_field = internal global i32 0, align 4

; Function Attrs: nounwind uwtable
define internal i32 @ws_ctz(i64 noundef %0) #0 {
  %2 = alloca i64, align 8
  store i64 %0, ptr %2, align 8
  %3 = load i64, ptr %2, align 8
  %4 = call i64 @llvm.cttz.i64(i64 %3, i1 true)
  %5 = trunc i64 %4 to i32
  ret i32 %5
}

; Function Attrs: nounwind uwtable
define hidden zeroext i16 @zdp_parse_server_flags(ptr noundef %0, i32 noundef %1, ptr noundef %2, ptr noundef %3) #0 {
  %5 = alloca ptr, align 8
  %6 = alloca i32, align 4
  %7 = alloca ptr, align 8
  %8 = alloca ptr, align 8
  %9 = alloca i16, align 2
  store ptr %0, ptr %5, align 8
  store i32 %1, ptr %6, align 4
  store ptr %2, ptr %7, align 8
  store ptr %3, ptr %8, align 8
  %10 = load ptr, ptr %7, align 8
  %11 = load ptr, ptr %8, align 8
  %12 = load i32, ptr %11, align 4
  %13 = call zeroext i16 @tvb_get_letohs(ptr noundef %10, i32 noundef %12)
  store i16 %13, ptr %9, align 2
  %14 = load ptr, ptr %5, align 8
  %15 = load ptr, ptr %7, align 8
  %16 = load ptr, ptr %8, align 8
  %17 = load i32, ptr %16, align 4
  %18 = load i32, ptr @hf_zbee_zdp_server, align 4
  %19 = load i32, ptr %6, align 4
  %20 = call ptr @proto_tree_add_bitmask_with_flags(ptr noundef %14, ptr noundef %15, i32 noundef %17, i32 noundef %18, i32 noundef %19, ptr noundef @zdp_parse_server_flags.server_flags, i32 noundef -2147483648, i32 noundef 1)
  %21 = load ptr, ptr %8, align 8
  %22 = load i32, ptr %21, align 4
  %23 = add i32 %22, 2
  store i32 %23, ptr %21, align 4
  %24 = load i16, ptr %9, align 2
  ret i16 %24
}

; Function Attrs: nounwind uwtable
define hidden zeroext i8 @zdp_parse_cinfo(ptr noundef %0, i32 noundef %1, ptr noundef %2, ptr noundef %3) #0 {
  %5 = alloca ptr, align 8
  %6 = alloca i32, align 4
  %7 = alloca ptr, align 8
  %8 = alloca ptr, align 8
  %9 = alloca i8, align 1
  store ptr %0, ptr %5, align 8
  store i32 %1, ptr %6, align 4
  store ptr %2, ptr %7, align 8
  store ptr %3, ptr %8, align 8
  %10 = load ptr, ptr %5, align 8
  %11 = load ptr, ptr %7, align 8
  %12 = load ptr, ptr %8, align 8
  %13 = load i32, ptr %12, align 4
  %14 = load i32, ptr @hf_zbee_zdp_cinfo, align 4
  %15 = load i32, ptr %6, align 4
  %16 = call ptr @proto_tree_add_bitmask_with_flags(ptr noundef %10, ptr noundef %11, i32 noundef %13, i32 noundef %14, i32 noundef %15, ptr noundef @zdp_parse_cinfo.cinfo, i32 noundef 0, i32 noundef 1)
  %17 = load ptr, ptr %7, align 8
  %18 = load ptr, ptr %8, align 8
  %19 = load i32, ptr %18, align 4
  %20 = call zeroext i8 @tvb_get_guint8(ptr noundef %17, i32 noundef %19)
  store i8 %20, ptr %9, align 1
  %21 = load ptr, ptr %8, align 8
  %22 = load i32, ptr %21, align 4
  %23 = add i32 %22, 1
  store i32 %23, ptr %21, align 4
  %24 = load i8, ptr %9, align 1
  ret i8 %24
}

; Function Attrs: nounwind uwtable
define hidden void @zdp_parse_node_desc(ptr noundef %0, ptr noundef %1, i32 noundef %2, i32 noundef %3, ptr noundef %4, ptr noundef %5, i8 noundef zeroext %6) #0 {
  %8 = alloca ptr, align 8
  %9 = alloca ptr, align 8
  %10 = alloca i32, align 4
  %11 = alloca i32, align 4
  %12 = alloca ptr, align 8
  %13 = alloca ptr, align 8
  %14 = alloca i8, align 1
  %15 = alloca ptr, align 8
  %16 = alloca ptr, align 8
  %17 = alloca ptr, align 8
  %18 = alloca i16, align 2
  %19 = alloca i16, align 2
  %20 = alloca i16, align 2
  store ptr %0, ptr %8, align 8
  store ptr %1, ptr %9, align 8
  store i32 %2, ptr %10, align 4
  store i32 %3, ptr %11, align 4
  store ptr %4, ptr %12, align 8
  store ptr %5, ptr %13, align 8
  store i8 %6, ptr %14, align 1
  store ptr null, ptr %16, align 8
  store ptr null, ptr %17, align 8
  %21 = load ptr, ptr %8, align 8
  %22 = icmp ne ptr %21, null
  br i1 %22, label %23, label %33

23:                                               ; preds = %7
  %24 = load i32, ptr %11, align 4
  %25 = icmp ne i32 %24, -1
  br i1 %25, label %26, label %33

26:                                               ; preds = %23
  %27 = load ptr, ptr %8, align 8
  %28 = load ptr, ptr %12, align 8
  %29 = load ptr, ptr %13, align 8
  %30 = load i32, ptr %29, align 4
  %31 = load i32, ptr %11, align 4
  %32 = call ptr @proto_tree_add_subtree(ptr noundef %27, ptr noundef %28, i32 noundef %30, i32 noundef -1, i32 noundef %31, ptr noundef %16, ptr noundef @.str.121)
  store ptr %32, ptr %17, align 8
  br label %35

33:                                               ; preds = %23, %7
  %34 = load ptr, ptr %8, align 8
  store ptr %34, ptr %17, align 8
  br label %35

35:                                               ; preds = %33, %26
  %36 = load ptr, ptr %12, align 8
  %37 = load ptr, ptr %13, align 8
  %38 = load i32, ptr %37, align 4
  %39 = call zeroext i16 @tvb_get_letohs(ptr noundef %36, i32 noundef %38)
  store i16 %39, ptr %18, align 2
  %40 = load ptr, ptr %8, align 8
  %41 = icmp ne ptr %40, null
  br i1 %41, label %42, label %81

42:                                               ; preds = %35
  %43 = load i16, ptr %18, align 2
  %44 = zext i16 %43 to i32
  %45 = and i32 %44, 7
  %46 = trunc i32 %45 to i16
  store i16 %46, ptr %19, align 2
  %47 = load ptr, ptr %17, align 8
  %48 = load i32, ptr @hf_zbee_zdp_node_type, align 4
  %49 = load ptr, ptr %12, align 8
  %50 = load ptr, ptr %13, align 8
  %51 = load i32, ptr %50, align 4
  %52 = load i16, ptr %19, align 2
  %53 = zext i16 %52 to i32
  %54 = call ptr @proto_tree_add_uint(ptr noundef %47, i32 noundef %48, ptr noundef %49, i32 noundef %51, i32 noundef 2, i32 noundef %53)
  store ptr %54, ptr %15, align 8
  %55 = load ptr, ptr %17, align 8
  %56 = load ptr, ptr %12, align 8
  %57 = load ptr, ptr %13, align 8
  %58 = load i32, ptr %57, align 4
  call void @proto_tree_add_bitmask_list(ptr noundef %55, ptr noundef %56, i32 noundef %58, i32 noundef 2, ptr noundef @zdp_parse_node_desc.nodes, i32 noundef -2147483648)
  %59 = load i16, ptr %19, align 2
  %60 = zext i16 %59 to i32
  %61 = icmp eq i32 %60, 0
  br i1 %61, label %62, label %64

62:                                               ; preds = %42
  %63 = load ptr, ptr %15, align 8
  call void (ptr, ptr, ...) @proto_item_append_text(ptr noundef %63, ptr noundef @.str.122)
  br label %80

64:                                               ; preds = %42
  %65 = load i16, ptr %19, align 2
  %66 = zext i16 %65 to i32
  %67 = icmp eq i32 %66, 1
  br i1 %67, label %68, label %70

68:                                               ; preds = %64
  %69 = load ptr, ptr %15, align 8
  call void (ptr, ptr, ...) @proto_item_append_text(ptr noundef %69, ptr noundef @.str.123)
  br label %79

70:                                               ; preds = %64
  %71 = load i16, ptr %19, align 2
  %72 = zext i16 %71 to i32
  %73 = icmp eq i32 %72, 2
  br i1 %73, label %74, label %76

74:                                               ; preds = %70
  %75 = load ptr, ptr %15, align 8
  call void (ptr, ptr, ...) @proto_item_append_text(ptr noundef %75, ptr noundef @.str.124)
  br label %78

76:                                               ; preds = %70
  %77 = load ptr, ptr %15, align 8
  call void (ptr, ptr, ...) @proto_item_append_text(ptr noundef %77, ptr noundef @.str.125)
  br label %78

78:                                               ; preds = %76, %74
  br label %79

79:                                               ; preds = %78, %68
  br label %80

80:                                               ; preds = %79, %62
  br label %81

81:                                               ; preds = %80, %35
  %82 = load ptr, ptr %13, align 8
  %83 = load i32, ptr %82, align 4
  %84 = add i32 %83, 2
  store i32 %84, ptr %82, align 4
  %85 = load ptr, ptr %17, align 8
  %86 = load i32, ptr @ett_zbee_zdp_cinfo, align 4
  %87 = load ptr, ptr %12, align 8
  %88 = load ptr, ptr %13, align 8
  %89 = call zeroext i8 @zdp_parse_cinfo(ptr noundef %85, i32 noundef %86, ptr noundef %87, ptr noundef %88)
  %90 = load ptr, ptr %17, align 8
  %91 = load i32, ptr @hf_zbee_zdp_node_manufacturer, align 4
  %92 = load ptr, ptr %12, align 8
  %93 = load ptr, ptr %13, align 8
  %94 = load i32, ptr %93, align 4
  %95 = call ptr @proto_tree_add_item(ptr noundef %90, i32 noundef %91, ptr noundef %92, i32 noundef %94, i32 noundef 2, i32 noundef -2147483648)
  %96 = load ptr, ptr %13, align 8
  %97 = load i32, ptr %96, align 4
  %98 = add i32 %97, 2
  store i32 %98, ptr %96, align 4
  %99 = load ptr, ptr %17, align 8
  %100 = load i32, ptr @hf_zbee_zdp_node_max_buffer, align 4
  %101 = load ptr, ptr %12, align 8
  %102 = load ptr, ptr %13, align 8
  %103 = load i32, ptr %102, align 4
  %104 = call ptr @proto_tree_add_item(ptr noundef %99, i32 noundef %100, ptr noundef %101, i32 noundef %103, i32 noundef 1, i32 noundef -2147483648)
  %105 = load ptr, ptr %13, align 8
  %106 = load i32, ptr %105, align 4
  %107 = add i32 %106, 1
  store i32 %107, ptr %105, align 4
  %108 = load ptr, ptr %17, align 8
  %109 = load i32, ptr @hf_zbee_zdp_node_max_incoming_transfer, align 4
  %110 = load ptr, ptr %12, align 8
  %111 = load ptr, ptr %13, align 8
  %112 = load i32, ptr %111, align 4
  %113 = call ptr @proto_tree_add_item(ptr noundef %108, i32 noundef %109, ptr noundef %110, i32 noundef %112, i32 noundef 2, i32 noundef -2147483648)
  %114 = load ptr, ptr %13, align 8
  %115 = load i32, ptr %114, align 4
  %116 = add i32 %115, 2
  store i32 %116, ptr %114, align 4
  %117 = load i8, ptr %14, align 1
  %118 = zext i8 %117 to i32
  %119 = icmp sge i32 %118, 2
  br i1 %119, label %120, label %162

120:                                              ; preds = %81
  %121 = load ptr, ptr %17, align 8
  %122 = load i32, ptr @ett_zbee_zdp_server, align 4
  %123 = load ptr, ptr %12, align 8
  %124 = load ptr, ptr %13, align 8
  %125 = call zeroext i16 @zdp_parse_server_flags(ptr noundef %121, i32 noundef %122, ptr noundef %123, ptr noundef %124)
  %126 = zext i16 %125 to i32
  %127 = and i32 %126, 65024
  %128 = trunc i32 %127 to i16
  store i16 %128, ptr %20, align 2
  %129 = load i32, ptr %10, align 4
  %130 = icmp ne i32 %129, 0
  br i1 %130, label %131, label %142

131:                                              ; preds = %120
  %132 = load i16, ptr %20, align 2
  %133 = zext i16 %132 to i32
  %134 = icmp ne i32 %133, 0
  br i1 %134, label %135, label %142

135:                                              ; preds = %131
  %136 = load ptr, ptr %8, align 8
  %137 = load ptr, ptr %9, align 8
  %138 = load i16, ptr %20, align 2
  %139 = zext i16 %138 to i32
  %140 = call i32 @ws_ctz(i64 noundef 65024)
  %141 = ashr i32 %139, %140
  call void (ptr, ptr, ptr, ...) @zbee_append_info(ptr noundef %136, ptr noundef %137, ptr noundef @.str.126, i32 noundef %141)
  br label %142

142:                                              ; preds = %135, %131, %120
  %143 = load ptr, ptr %17, align 8
  %144 = load i32, ptr @hf_zbee_zdp_node_max_outgoing_transfer, align 4
  %145 = load ptr, ptr %12, align 8
  %146 = load ptr, ptr %13, align 8
  %147 = load i32, ptr %146, align 4
  %148 = call ptr @proto_tree_add_item(ptr noundef %143, i32 noundef %144, ptr noundef %145, i32 noundef %147, i32 noundef 2, i32 noundef -2147483648)
  %149 = load ptr, ptr %13, align 8
  %150 = load i32, ptr %149, align 4
  %151 = add i32 %150, 2
  store i32 %151, ptr %149, align 4
  %152 = load ptr, ptr %17, align 8
  %153 = load ptr, ptr %12, align 8
  %154 = load ptr, ptr %13, align 8
  %155 = load i32, ptr %154, align 4
  %156 = load i32, ptr @hf_zbee_zdp_dcf, align 4
  %157 = load i32, ptr @ett_zbee_zdp_descriptor_capability_field, align 4
  %158 = call ptr @proto_tree_add_bitmask_with_flags(ptr noundef %152, ptr noundef %153, i32 noundef %155, i32 noundef %156, i32 noundef %157, ptr noundef @zdp_parse_node_desc.descriptors, i32 noundef 0, i32 noundef 1)
  %159 = load ptr, ptr %13, align 8
  %160 = load i32, ptr %159, align 4
  %161 = add i32 %160, 1
  store i32 %161, ptr %159, align 4
  br label %162

162:                                              ; preds = %142, %81
  %163 = load ptr, ptr %8, align 8
  %164 = icmp ne ptr %163, null
  br i1 %164, label %165, label %172

165:                                              ; preds = %162
  %166 = load i32, ptr %11, align 4
  %167 = icmp ne i32 %166, -1
  br i1 %167, label %168, label %172

168:                                              ; preds = %165
  %169 = load ptr, ptr %16, align 8
  %170 = load ptr, ptr %13, align 8
  %171 = load i32, ptr %170, align 4
  call void @proto_item_set_len(ptr noundef %169, i32 noundef %171)
  br label %172

172:                                              ; preds = %168, %165, %162
  ret void
}