; Function Attrs: nounwind uwtable
define hidden void @zdp_parse_node_desc(ptr noundef %0, ptr noundef readonly captures(none) %1, i32 noundef %2, i32 noundef %3, ptr noundef %4, ptr noundef captures(none) %5, i8 noundef zeroext %6) local_unnamed_addr #0 {
  %8 = alloca ptr, align 8
  store ptr null, ptr %8, align 8
  %9 = icmp ne ptr %0, null
  %10 = icmp ne i32 %3, -1
  %or.cond = and i1 %9, %10
  %11 = load i32, ptr %5, align 4
  br i1 %or.cond, label %.thread, label %15

.thread:                                          ; preds = %7
  %12 = call ptr @proto_tree_add_subtree(ptr noundef nonnull %0, ptr noundef %4, i32 noundef %11, i32 noundef -1, i32 noundef %3, ptr noundef nonnull %8, ptr noundef nonnull @.str.121) #4
  %13 = load i32, ptr %5, align 4
  %14 = call zeroext i16 @tvb_get_letohs(ptr noundef %4, i32 noundef %13) #4
  br label %17

15:                                               ; preds = %7
  %16 = tail call zeroext i16 @tvb_get_letohs(ptr noundef %4, i32 noundef %11) #4
  br i1 %9, label %17, label %27

17:                                               ; preds = %.thread, %15
  %18 = phi i16 [ %14, %.thread ], [ %16, %15 ]
  %.071 = phi ptr [ %12, %.thread ], [ %0, %15 ]
  %19 = and i16 %18, 7
  %20 = load i32, ptr @hf_zbee_zdp_node_type, align 4
  %21 = load i32, ptr %5, align 4
  %22 = zext nneg i16 %19 to i32
  %23 = call ptr @proto_tree_add_uint(ptr noundef %.071, i32 noundef %20, ptr noundef %4, i32 noundef %21, i32 noundef 2, i32 noundef %22) #4
  %24 = load i32, ptr %5, align 4
  call void @proto_tree_add_bitmask_list(ptr noundef %.071, ptr noundef %4, i32 noundef %24, i32 noundef 2, ptr noundef nonnull @zdp_parse_node_desc.nodes, i32 noundef -2147483648) #4
  %25 = icmp samesign ult i16 %19, 3
  br i1 %25, label %switch.lookup, label %.sink.split

switch.lookup:                                    ; preds = %17
  %26 = zext nneg i16 %19 to i64
  %switch.gep = getelementptr inbounds nuw [3 x ptr], ptr @switch.table.zdp_parse_node_desc, i64 0, i64 %26
  %switch.load = load ptr, ptr %switch.gep, align 8
  br label %.sink.split

.sink.split:                                      ; preds = %17, %switch.lookup
  %.str.122.sink = phi ptr [ %switch.load, %switch.lookup ], [ @.str.125, %17 ]
  call void (ptr, ptr, ...) @proto_item_append_text(ptr noundef %23, ptr noundef nonnull %.str.122.sink) #4
  br label %27

27:                                               ; preds = %.sink.split, %15
  %.072 = phi ptr [ null, %15 ], [ %.071, %.sink.split ]
  %28 = load i32, ptr %5, align 4
  %29 = add i32 %28, 2
  store i32 %29, ptr %5, align 4
  %30 = load i32, ptr @ett_zbee_zdp_cinfo, align 4
  %31 = load i32, ptr @hf_zbee_zdp_cinfo, align 4
  %32 = call ptr @proto_tree_add_bitmask_with_flags(ptr noundef %.072, ptr noundef %4, i32 noundef %29, i32 noundef %31, i32 noundef %30, ptr noundef nonnull @zdp_parse_cinfo.cinfo, i32 noundef 0, i32 noundef 1) #4
  %33 = load i32, ptr %5, align 4
  %34 = call zeroext i8 @tvb_get_guint8(ptr noundef %4, i32 noundef %33) #4
  %35 = load i32, ptr %5, align 4
  %36 = add i32 %35, 1
  store i32 %36, ptr %5, align 4
  %37 = load i32, ptr @hf_zbee_zdp_node_manufacturer, align 4
  %38 = call ptr @proto_tree_add_item(ptr noundef %.072, i32 noundef %37, ptr noundef %4, i32 noundef %36, i32 noundef 2, i32 noundef -2147483648) #4
  %39 = load i32, ptr %5, align 4
  %40 = add i32 %39, 2
  store i32 %40, ptr %5, align 4
  %41 = load i32, ptr @hf_zbee_zdp_node_max_buffer, align 4
  %42 = call ptr @proto_tree_add_item(ptr noundef %.072, i32 noundef %41, ptr noundef %4, i32 noundef %40, i32 noundef 1, i32 noundef -2147483648) #4
  %43 = load i32, ptr %5, align 4
  %44 = add i32 %43, 1
  store i32 %44, ptr %5, align 4
  %45 = load i32, ptr @hf_zbee_zdp_node_max_incoming_transfer, align 4
  %46 = call ptr @proto_tree_add_item(ptr noundef %.072, i32 noundef %45, ptr noundef %4, i32 noundef %44, i32 noundef 2, i32 noundef -2147483648) #4
  %47 = load i32, ptr %5, align 4
  %48 = add i32 %47, 2
  store i32 %48, ptr %5, align 4
  %49 = icmp ugt i8 %6, 1
  br i1 %49, label %50, label %74

50:                                               ; preds = %27
  %51 = load i32, ptr @ett_zbee_zdp_server, align 4
  %52 = call zeroext i16 @tvb_get_letohs(ptr noundef %4, i32 noundef %48) #4
  %53 = load i32, ptr %5, align 4
  %54 = load i32, ptr @hf_zbee_zdp_server, align 4
  %55 = call ptr @proto_tree_add_bitmask_with_flags(ptr noundef %.072, ptr noundef %4, i32 noundef %53, i32 noundef %54, i32 noundef %51, ptr noundef nonnull @zdp_parse_server_flags.server_flags, i32 noundef -2147483648, i32 noundef 1) #4
  %56 = load i32, ptr %5, align 4
  %57 = add i32 %56, 2
  store i32 %57, ptr %5, align 4
  %58 = icmp ne i32 %2, 0
  %59 = icmp ugt i16 %52, 511
  %or.cond4 = select i1 %58, i1 %59, i1 false
  br i1 %or.cond4, label %60, label %63

60:                                               ; preds = %50
  %61 = lshr i16 %52, 9
  %62 = zext nneg i16 %61 to i32
  call void (ptr, ptr, ptr, ...) @zbee_append_info(ptr noundef %0, ptr noundef %1, ptr noundef nonnull @.str.126, i32 noundef %62)
  %.pre = load i32, ptr %5, align 4
  br label %63

63:                                               ; preds = %60, %50
  %64 = phi i32 [ %.pre, %60 ], [ %57, %50 ]
  %65 = load i32, ptr @hf_zbee_zdp_node_max_outgoing_transfer, align 4
  %66 = call ptr @proto_tree_add_item(ptr noundef %.072, i32 noundef %65, ptr noundef %4, i32 noundef %64, i32 noundef 2, i32 noundef -2147483648) #4
  %67 = load i32, ptr %5, align 4
  %68 = add i32 %67, 2
  store i32 %68, ptr %5, align 4
  %69 = load i32, ptr @hf_zbee_zdp_dcf, align 4
  %70 = load i32, ptr @ett_zbee_zdp_descriptor_capability_field, align 4
  %71 = call ptr @proto_tree_add_bitmask_with_flags(ptr noundef %.072, ptr noundef %4, i32 noundef %68, i32 noundef %69, i32 noundef %70, ptr noundef nonnull @zdp_parse_node_desc.descriptors, i32 noundef 0, i32 noundef 1) #4
  %72 = load i32, ptr %5, align 4
  %73 = add i32 %72, 1
  store i32 %73, ptr %5, align 4
  br label %74

74:                                               ; preds = %63, %27
  %75 = phi i32 [ %73, %63 ], [ %48, %27 ]
  br i1 %or.cond, label %76, label %78

76:                                               ; preds = %74
  %77 = load ptr, ptr %8, align 8
  call void @proto_item_set_len(ptr noundef %77, i32 noundef %75) #4
  br label %78

78:                                               ; preds = %76, %74
  ret void
}